target datalayout = "e-m:e-p270:32:32-p271:32:32-p272:64:64-i64:64-i128:128-f80:128-n8:16:32:64-S128"
target triple = "x86_64-pc-linux-gnu"

%struct.TValue = type { %union.Value, i8 }
%union.Value = type { ptr }
%struct.TString = type { ptr, i8, i8, i8, i8, i32, %union.anon, ptr, ptr, ptr }
%union.anon = type { i64 }

; Function Attrs: nounwind uwtable
define internal i32 @l_strcmp(ptr noundef %0, ptr noundef %1) #0 {
  %3 = alloca i32, align 4
  %4 = alloca ptr, align 8
  %5 = alloca ptr, align 8
  %6 = alloca i64, align 8
  %7 = alloca ptr, align 8
  %8 = alloca i64, align 8
  %9 = alloca ptr, align 8
  %10 = alloca i32, align 4
  %11 = alloca i32, align 4
  %12 = alloca i64, align 8
  %13 = alloca i64, align 8
  store ptr %0, ptr %4, align 8, !tbaa !16
  store ptr %1, ptr %5, align 8, !tbaa !16
  call void @llvm.lifetime.start.p0(i64 8, ptr %6) #10
  call void @llvm.lifetime.start.p0(i64 8, ptr %7) #10
  %14 = load ptr, ptr %4, align 8, !tbaa !16
  %15 = getelementptr inbounds nuw %struct.TString, ptr %14, i32 0, i32 4
  %16 = load i8, ptr %15, align 1, !tbaa !18
  %17 = sext i8 %16 to i32
  %18 = icmp sge i32 %17, 0
  br i1 %18, label %19, label %26

19:                                               ; preds = %2
  %20 = load ptr, ptr %4, align 8, !tbaa !16
  %21 = getelementptr inbounds nuw %struct.TString, ptr %20, i32 0, i32 4
  %22 = load i8, ptr %21, align 1, !tbaa !18
  %23 = sext i8 %22 to i64
  store i64 %23, ptr %6, align 8, !tbaa !23
  %24 = load ptr, ptr %4, align 8, !tbaa !16
  %25 = getelementptr inbounds nuw %struct.TString, ptr %24, i32 0, i32 7
  br label %33

26:                                               ; preds = %2
  %27 = load ptr, ptr %4, align 8, !tbaa !16
  %28 = getelementptr inbounds nuw %struct.TString, ptr %27, i32 0, i32 6
  %29 = load i64, ptr %28, align 8, !tbaa !13
  store i64 %29, ptr %6, align 8, !tbaa !23
  %30 = load ptr, ptr %4, align 8, !tbaa !16
  %31 = getelementptr inbounds nuw %struct.TString, ptr %30, i32 0, i32 7
  %32 = load ptr, ptr %31, align 8, !tbaa !25
  br label %33

33:                                               ; preds = %26, %19
  %34 = phi ptr [ %25, %19 ], [ %32, %26 ]
  store ptr %34, ptr %7, align 8, !tbaa !26
  call void @llvm.lifetime.start.p0(i64 8, ptr %8) #10
  call void @llvm.lifetime.start.p0(i64 8, ptr %9) #10
  %35 = load ptr, ptr %5, align 8, !tbaa !16
  %36 = getelementptr inbounds nuw %struct.TString, ptr %35, i32 0, i32 4
  %37 = load i8, ptr %36, align 1, !tbaa !18
  %38 = sext i8 %37 to i32
  %39 = icmp sge i32 %38, 0
  br i1 %39, label %40, label %47

40:                                               ; preds = %33
  %41 = load ptr, ptr %5, align 8, !tbaa !16
  %42 = getelementptr inbounds nuw %struct.TString, ptr %41, i32 0, i32 4
  %43 = load i8, ptr %42, align 1, !tbaa !18
  %44 = sext i8 %43 to i64
  store i64 %44, ptr %8, align 8, !tbaa !23
  %45 = load ptr, ptr %5, align 8, !tbaa !16
  %46 = getelementptr inbounds nuw %struct.TString, ptr %45, i32 0, i32 7
  br label %54

47:                                               ; preds = %33
  %48 = load ptr, ptr %5, align 8, !tbaa !16
  %49 = getelementptr inbounds nuw %struct.TString, ptr %48, i32 0, i32 6
  %50 = load i64, ptr %49, align 8, !tbaa !13
  store i64 %50, ptr %8, align 8, !tbaa !23
  %51 = load ptr, ptr %5, align 8, !tbaa !16
  %52 = getelementptr inbounds nuw %struct.TString, ptr %51, i32 0, i32 7
  %53 = load ptr, ptr %52, align 8, !tbaa !25
  br label %54

54:                                               ; preds = %47, %40
  %55 = phi ptr [ %46, %40 ], [ %53, %47 ]
  store ptr %55, ptr %9, align 8, !tbaa !26
  br label %56

56:                                               ; preds = %106, %54
  call void @llvm.lifetime.start.p0(i64 4, ptr %10) #10
  %57 = load ptr, ptr %7, align 8, !tbaa !26
  %58 = load ptr, ptr %9, align 8, !tbaa !26
  %59 = call i32 @strcoll(ptr noundef %57, ptr noundef %58) #12
  store i32 %59, ptr %10, align 4, !tbaa !29
  %60 = load i32, ptr %10, align 4, !tbaa !29
  %61 = icmp ne i32 %60, 0
  br i1 %61, label %62, label %64

62:                                               ; preds = %56
  %63 = load i32, ptr %10, align 4, !tbaa !29
  store i32 %63, ptr %3, align 4
  store i32 1, ptr %11, align 4
  br label %104

64:                                               ; preds = %56
  call void @llvm.lifetime.start.p0(i64 8, ptr %12) #10
  %65 = load ptr, ptr %7, align 8, !tbaa !26
  %66 = call i64 @strlen(ptr noundef %65) #12
  store i64 %66, ptr %12, align 8, !tbaa !23
  call void @llvm.lifetime.start.p0(i64 8, ptr %13) #10
  %67 = load ptr, ptr %9, align 8, !tbaa !26
  %68 = call i64 @strlen(ptr noundef %67) #12
  store i64 %68, ptr %13, align 8, !tbaa !23
  %69 = load i64, ptr %13, align 8, !tbaa !23
  %70 = load i64, ptr %8, align 8, !tbaa !23
  %71 = icmp eq i64 %69, %70
  br i1 %71, label %72, label %77

72:                                               ; preds = %64
  %73 = load i64, ptr %12, align 8, !tbaa !23
  %74 = load i64, ptr %6, align 8, !tbaa !23
  %75 = icmp eq i64 %73, %74
  %76 = select i1 %75, i32 0, i32 1
  store i32 %76, ptr %3, align 4
  store i32 1, ptr %11, align 4
  br label %100

77:                                               ; preds = %64
  %78 = load i64, ptr %12, align 8, !tbaa !23
  %79 = load i64, ptr %6, align 8, !tbaa !23
  %80 = icmp eq i64 %78, %79
  br i1 %80, label %81, label %82

81:                                               ; preds = %77
  store i32 -1, ptr %3, align 4
  store i32 1, ptr %11, align 4
  br label %100

82:                                               ; preds = %77
  br label %83

83:                                               ; preds = %82
  %84 = load i64, ptr %12, align 8, !tbaa !23
  %85 = add i64 %84, 1
  store i64 %85, ptr %12, align 8, !tbaa !23
  %86 = load i64, ptr %13, align 8, !tbaa !23
  %87 = add i64 %86, 1
  store i64 %87, ptr %13, align 8, !tbaa !23
  %88 = load i64, ptr %12, align 8, !tbaa !23
  %89 = load ptr, ptr %7, align 8, !tbaa !26
  %90 = getelementptr inbounds nuw i8, ptr %89, i64 %88
  store ptr %90, ptr %7, align 8, !tbaa !26
  %91 = load i64, ptr %12, align 8, !tbaa !23
  %92 = load i64, ptr %6, align 8, !tbaa !23
  %93 = sub i64 %92, %91
  store i64 %93, ptr %6, align 8, !tbaa !23
  %94 = load i64, ptr %13, align 8, !tbaa !23
  %95 = load ptr, ptr %9, align 8, !tbaa !26
  %96 = getelementptr inbounds nuw i8, ptr %95, i64 %94
  store ptr %96, ptr %9, align 8, !tbaa !26
  %97 = load i64, ptr %13, align 8, !tbaa !23
  %98 = load i64, ptr %8, align 8, !tbaa !23
  %99 = sub i64 %98, %97
  store i64 %99, ptr %8, align 8, !tbaa !23
  store i32 0, ptr %11, align 4
  br label %100

100:                                              ; preds = %83, %81, %72
  call void @llvm.lifetime.end.p0(i64 8, ptr %13) #10
  call void @llvm.lifetime.end.p0(i64 8, ptr %12) #10
  %101 = load i32, ptr %11, align 4
  switch i32 %101, label %104 [
    i32 0, label %102
  ]

102:                                              ; preds = %100
  br label %103

103:                                              ; preds = %102
  store i32 0, ptr %11, align 4
  br label %104

104:                                              ; preds = %103, %100, %62
  call void @llvm.lifetime.end.p0(i64 4, ptr %10) #10
  %105 = load i32, ptr %11, align 4
  switch i32 %105, label %107 [
    i32 0, label %106
  ]

106:                                              ; preds = %104
  br label %56

107:                                              ; preds = %104
  call void @llvm.lifetime.end.p0(i64 8, ptr %9) #10
  call void @llvm.lifetime.end.p0(i64 8, ptr %8) #10
  call void @llvm.lifetime.end.p0(i64 8, ptr %7) #10
  call void @llvm.lifetime.end.p0(i64 8, ptr %6) #10
  %108 = load i32, ptr %3, align 4
  ret i32 %108
}

; Function Attrs: nounwind uwtable
define internal i32 @lessthanothers(ptr noundef %0, ptr noundef %1, ptr noundef %2) #0 {
  %4 = alloca i32, align 4
  %5 = alloca ptr, align 8
  %6 = alloca ptr, align 8
  %7 = alloca ptr, align 8
  store ptr %0, ptr %5, align 8, !tbaa !32
  store ptr %1, ptr %6, align 8, !tbaa !4
  store ptr %2, ptr %7, align 8, !tbaa !4
  %8 = load ptr, ptr %6, align 8, !tbaa !4
  %9 = getelementptr inbounds nuw %struct.TValue, ptr %8, i32 0, i32 1
  %10 = load i8, ptr %9, align 8, !tbaa !11
  %11 = zext i8 %10 to i32
  %12 = and i32 %11, 15
  %13 = icmp eq i32 %12, 4
  br i1 %13, label %14, label %31

14:                                               ; preds = %3
  %15 = load ptr, ptr %7, align 8, !tbaa !4
  %16 = getelementptr inbounds nuw %struct.TValue, ptr %15, i32 0, i32 1
  %17 = load i8, ptr %16, align 8, !tbaa !11
  %18 = zext i8 %17 to i32
  %19 = and i32 %18, 15
  %20 = icmp eq i32 %19, 4
  br i1 %20, label %21, label %31

21:                                               ; preds = %14
  %22 = load ptr, ptr %6, align 8, !tbaa !4
  %23 = getelementptr inbounds nuw %struct.TValue, ptr %22, i32 0, i32 0
  %24 = load ptr, ptr %23, align 8, !tbaa !13
  %25 = load ptr, ptr %7, align 8, !tbaa !4
  %26 = getelementptr inbounds nuw %struct.TValue, ptr %25, i32 0, i32 0
  %27 = load ptr, ptr %26, align 8, !tbaa !13
  %28 = call i32 @l_strcmp(ptr noundef %24, ptr noundef %27)
  %29 = icmp slt i32 %28, 0
  %30 = zext i1 %29 to i32
  store i32 %30, ptr %4, align 4
  br label %36

31:                                               ; preds = %14, %3
  %32 = load ptr, ptr %5, align 8, !tbaa !32
  %33 = load ptr, ptr %6, align 8, !tbaa !4
  %34 = load ptr, ptr %7, align 8, !tbaa !4
  %35 = call i32 @luaT_callorderTM(ptr noundef %32, ptr noundef %33, ptr noundef %34, i32 noundef 20)
  store i32 %35, ptr %4, align 4
  br label %36

36:                                               ; preds = %31, %21
  %37 = load i32, ptr %4, align 4
  ret i32 %37
}